; Function Attrs: nounwind uwtable
define i32 @Abc_SclGetRealFaninLit(ptr noundef readonly captures(none) %0) local_unnamed_addr #2 {
  %2 = getelementptr i8, ptr %0, i64 20
  %.val.i = load i32, ptr %2, align 4
  %3 = and i32 %.val.i, 15
  %.not.i = icmp eq i32 %3, 7
  br i1 %.not.i, label %Abc_SclObjIsBufInv.exit, label %Abc_SclObjIsBufInv.exit.thread

Abc_SclObjIsBufInv.exit:                          ; preds = %1
  %4 = getelementptr i8, ptr %0, i64 28
  %.val2.i = load i32, ptr %4, align 4, !tbaa !28
  %.not = icmp eq i32 %.val2.i, 1
  br i1 %.not, label %7, label %Abc_SclObjIsBufInv.exit.thread

Abc_SclObjIsBufInv.exit.thread:                   ; preds = %1, %Abc_SclObjIsBufInv.exit
  %5 = getelementptr i8, ptr %0, i64 16
  %.val = load i32, ptr %5, align 8, !tbaa !34
  %6 = shl nsw i32 %.val, 1
  br label %common.ret8

common.ret8:                                      ; preds = %7, %Abc_SclObjIsBufInv.exit.thread
  %common.ret8.op = phi i32 [ %6, %Abc_SclObjIsBufInv.exit.thread ], [ %20, %7 ]
  ret i32 %common.ret8.op

7:                                                ; preds = %Abc_SclObjIsBufInv.exit
  %.val5 = load ptr, ptr %0, align 8, !tbaa !31
  %8 = getelementptr i8, ptr %0, i64 32
  %.val6 = load ptr, ptr %8, align 8, !tbaa !32
  %9 = getelementptr i8, ptr %.val5, i64 32
  %.val5.val = load ptr, ptr %9, align 8, !tbaa !3
  %.val6.val = load i32, ptr %.val6, align 4, !tbaa !33
  %10 = getelementptr i8, ptr %.val5.val, i64 8
  %.val5.val.val = load ptr, ptr %10, align 8, !tbaa !26
  %11 = sext i32 %.val6.val to i64
  %12 = getelementptr inbounds ptr, ptr %.val5.val.val, i64 %11
  %13 = load ptr, ptr %12, align 8, !tbaa !27
  %14 = tail call i32 @Abc_SclGetRealFaninLit(ptr noundef %13)
  %15 = getelementptr inbounds nuw i8, ptr %0, i64 56
  %16 = load ptr, ptr %15, align 8, !tbaa !40
  %17 = tail call i64 @Mio_GateReadTruth(ptr noundef %16) #17
  %18 = icmp eq i64 %17, 6148914691236517205
  %19 = zext i1 %18 to i32
  %20 = xor i32 %14, %19
  br label %common.ret8
}